target datalayout = "e-m:e-p270:32:32-p271:32:32-p272:64:64-i64:64-i128:128-f80:128-n8:16:32:64-S128"
target triple = "x86_64-pc-linux-gnu"

%struct.sigaction = type { %union.anon, %struct.__sigset_t, i32, ptr }
%union.anon = type { ptr }
%struct.__sigset_t = type { [16 x i64] }

@.str.60 = private unnamed_addr constant [5 x i8] c"test\00", align 1
@.str.62 = private unnamed_addr constant [10 x i8] c"testapp.c\00", align 1
@cache_error = external global i32, align 4
@.str.64 = private unnamed_addr constant [18 x i8] c"cache_error == -1\00", align 1
@__PRETTY_FUNCTION__.cache_redzone_test = private unnamed_addr constant [42 x i8] c"enum test_return cache_redzone_test(void)\00", align 1
@.str.65 = private unnamed_addr constant [17 x i8] c"cache_error == 1\00", align 1

; Function Attrs: nounwind uwtable
define internal i32 @cache_redzone_test() #0 {
  %1 = alloca i32, align 4
  %2 = alloca ptr, align 8
  %3 = alloca i32, align 4
  %4 = alloca %struct.sigaction, align 8
  %5 = alloca %struct.sigaction, align 8
  %6 = alloca ptr, align 8
  %7 = alloca i8, align 1
  call void @llvm.lifetime.start.p0(i64 8, ptr %2) #12
  %8 = call ptr @cache_create(ptr noundef @.str.60, i64 noundef 4, i64 noundef 8)
  store ptr %8, ptr %2, align 8, !tbaa !4
  %9 = load ptr, ptr %2, align 8, !tbaa !4
  %10 = icmp eq ptr %9, null
  br i1 %10, label %11, label %12

11:                                               ; preds = %0
  store i32 2, ptr %1, align 4
  store i32 1, ptr %3, align 4
  br label %46

12:                                               ; preds = %0
  call void @llvm.lifetime.start.p0(i64 152, ptr %4) #12
  call void @llvm.lifetime.start.p0(i64 152, ptr %5) #12
  call void @llvm.memset.p0.i64(ptr align 8 %5, i8 0, i64 152, i1 false)
  %13 = getelementptr inbounds { %union.anon, %struct.__sigset_t, i32, [4 x i8], ptr }, ptr %5, i32 0, i32 0
  %14 = getelementptr inbounds %union.anon, ptr %13, i32 0, i32 0
  store ptr inttoptr (i64 1 to ptr), ptr %14, align 8
  %15 = getelementptr inbounds nuw %struct.sigaction, ptr %5, i32 0, i32 1
  %16 = call i32 @sigemptyset(ptr noundef %15) #12
  %17 = call i32 @sigaction(i32 noundef 6, ptr noundef %5, ptr noundef %4) #12
  call void @llvm.lifetime.start.p0(i64 8, ptr %6) #12
  %18 = load ptr, ptr %2, align 8, !tbaa !4
  %19 = call ptr @cache_alloc(ptr noundef %18)
  store ptr %19, ptr %6, align 8, !tbaa !8
  call void @llvm.lifetime.start.p0(i64 1, ptr %7) #12
  %20 = load ptr, ptr %6, align 8, !tbaa !8
  %21 = getelementptr inbounds i8, ptr %20, i64 -1
  %22 = load i8, ptr %21, align 1, !tbaa !14
  store i8 %22, ptr %7, align 1, !tbaa !14
  %23 = load ptr, ptr %6, align 8, !tbaa !8
  %24 = getelementptr inbounds i8, ptr %23, i64 -1
  store i8 0, ptr %24, align 1, !tbaa !14
  %25 = load ptr, ptr %2, align 8, !tbaa !4
  %26 = load ptr, ptr %6, align 8, !tbaa !8
  call void @cache_free(ptr noundef %25, ptr noundef %26)
  %27 = load i32, ptr @cache_error, align 4, !tbaa !10
  %28 = icmp eq i32 %27, -1
  br i1 %28, label %29, label %30

29:                                               ; preds = %12
  br label %31

30:                                               ; preds = %12
  call void @__assert_fail(ptr noundef @.str.64, ptr noundef @.str.62, i32 noundef 178, ptr noundef @__PRETTY_FUNCTION__.cache_redzone_test) #13
  unreachable

31:                                               ; preds = %29
  %32 = load i8, ptr %7, align 1, !tbaa !14
  %33 = load ptr, ptr %6, align 8, !tbaa !8
  %34 = getelementptr inbounds i8, ptr %33, i64 -1
  store i8 %32, ptr %34, align 1, !tbaa !14
  %35 = load ptr, ptr %6, align 8, !tbaa !8
  %36 = getelementptr inbounds nuw i8, ptr %35, i64 4
  store i8 0, ptr %36, align 1, !tbaa !14
  %37 = load ptr, ptr %2, align 8, !tbaa !4
  %38 = load ptr, ptr %6, align 8, !tbaa !8
  call void @cache_free(ptr noundef %37, ptr noundef %38)
  %39 = load i32, ptr @cache_error, align 4, !tbaa !10
  %40 = icmp eq i32 %39, 1
  br i1 %40, label %41, label %42

41:                                               ; preds = %31
  br label %43

42:                                               ; preds = %31
  call void @__assert_fail(ptr noundef @.str.65, ptr noundef @.str.62, i32 noundef 183, ptr noundef @__PRETTY_FUNCTION__.cache_redzone_test) #13
  unreachable

43:                                               ; preds = %41
  %44 = call i32 @sigaction(i32 noundef 6, ptr noundef %4, ptr noundef null) #12
  %45 = load ptr, ptr %2, align 8, !tbaa !4
  call void @cache_destroy(ptr noundef %45)
  store i32 1, ptr %1, align 4
  store i32 1, ptr %3, align 4
  call void @llvm.lifetime.end.p0(i64 1, ptr %7) #12
  call void @llvm.lifetime.end.p0(i64 8, ptr %6) #12
  call void @llvm.lifetime.end.p0(i64 152, ptr %5) #12
  call void @llvm.lifetime.end.p0(i64 152, ptr %4) #12
  br label %46

46:                                               ; preds = %43, %11
  call void @llvm.lifetime.end.p0(i64 8, ptr %2) #12
  %47 = load i32, ptr %1, align 4
  ret i32 %47
}