; Function Attrs: nounwind uwtable
define internal range(i32 1, 3) i32 @cache_redzone_test() #0 {
  %1 = alloca %struct.sigaction, align 8
  %2 = alloca %struct.sigaction, align 8
  %3 = tail call ptr @cache_create(ptr noundef nonnull @.str.60, i64 noundef 4, i64 noundef 8) #21
  %4 = icmp eq ptr %3, null
  br i1 %4, label %23, label %5

5:                                                ; preds = %0
  call void @llvm.lifetime.start.p0(i64 152, ptr nonnull %1) #21
  call void @llvm.lifetime.start.p0(i64 152, ptr nonnull %2) #21
  %6 = getelementptr inbounds nuw i8, ptr %2, i64 8
  call void @llvm.memset.p0.i64(ptr noundef nonnull align 8 dereferenceable(152) %6, i8 0, i64 144, i1 false)
  store ptr inttoptr (i64 1 to ptr), ptr %2, align 8
  %7 = getelementptr inbounds nuw i8, ptr %2, i64 8
  %8 = call i32 @sigemptyset(ptr noundef nonnull %7) #21
  %9 = call i32 @sigaction(i32 noundef 6, ptr noundef nonnull %2, ptr noundef nonnull %1) #21
  %10 = call ptr @cache_alloc(ptr noundef nonnull %3) #21
  %11 = getelementptr inbounds i8, ptr %10, i64 -1
  %12 = load i8, ptr %11, align 1, !tbaa !6
  store i8 0, ptr %11, align 1, !tbaa !6
  call void @cache_free(ptr noundef nonnull %3, ptr noundef %10) #21
  %13 = load i32, ptr @cache_error, align 4, !tbaa !9
  %14 = icmp eq i32 %13, -1
  br i1 %14, label %16, label %15

15:                                               ; preds = %5
  call void @__assert_fail(ptr noundef nonnull @.str.64, ptr noundef nonnull @.str.62, i32 noundef 178, ptr noundef nonnull @__PRETTY_FUNCTION__.cache_redzone_test) #22
  unreachable

16:                                               ; preds = %5
  store i8 %12, ptr %11, align 1, !tbaa !6
  %17 = getelementptr inbounds nuw i8, ptr %10, i64 4
  store i8 0, ptr %17, align 1, !tbaa !6
  call void @cache_free(ptr noundef nonnull %3, ptr noundef nonnull %10) #21
  %18 = load i32, ptr @cache_error, align 4, !tbaa !9
  %19 = icmp eq i32 %18, 1
  br i1 %19, label %21, label %20

20:                                               ; preds = %16
  call void @__assert_fail(ptr noundef nonnull @.str.65, ptr noundef nonnull @.str.62, i32 noundef 183, ptr noundef nonnull @__PRETTY_FUNCTION__.cache_redzone_test) #22
  unreachable

21:                                               ; preds = %16
  %22 = call i32 @sigaction(i32 noundef 6, ptr noundef nonnull %1, ptr noundef null) #21
  call void @cache_destroy(ptr noundef nonnull %3) #21
  call void @llvm.lifetime.end.p0(i64 152, ptr nonnull %2) #21
  call void @llvm.lifetime.end.p0(i64 152, ptr nonnull %1) #21
  br label %23

23:                                               ; preds = %0, %21
  %.0 = phi i32 [ 1, %21 ], [ 2, %0 ]
  ret i32 %.0
}